; Function Attrs: mustprogress uwtable
define void @_Z6MirrorR6QImage(ptr noundef nonnull align 8 dereferenceable(32) %0) local_unnamed_addr #5 {
  %2 = tail call noundef i32 @_ZNK6QImage6heightEv(ptr noundef nonnull align 8 dereferenceable(32) %0)
  %3 = icmp sgt i32 %2, 1
  br i1 %3, label %.lr.ph17, label %._crit_edge

.loopexit:                                        ; preds = %.lr.ph, %.lr.ph17
  %4 = tail call noundef i32 @_ZNK6QImage6heightEv(ptr noundef nonnull align 8 dereferenceable(32) %0)
  %5 = sdiv i32 %4, 2
  %6 = icmp slt i32 %12, %5
  br i1 %6, label %.lr.ph17, label %._crit_edge, !llvm.loop !20

.lr.ph17:                                         ; preds = %1, %.loopexit
  %.01416 = phi i32 [ %12, %.loopexit ], [ 0, %1 ]
  %7 = tail call noundef ptr @_ZN6QImage8scanLineEi(ptr noundef nonnull align 8 dereferenceable(32) %0, i32 noundef %.01416)
  %8 = tail call noundef i32 @_ZNK6QImage6heightEv(ptr noundef nonnull align 8 dereferenceable(32) %0)
  %9 = xor i32 %.01416, -1
  %10 = add i32 %8, %9
  %11 = tail call noundef ptr @_ZN6QImage8scanLineEi(ptr noundef nonnull align 8 dereferenceable(32) %0, i32 noundef %10)
  %12 = add nuw nsw i32 %.01416, 1
  %13 = tail call noundef i32 @_ZNK6QImage5widthEv(ptr noundef nonnull align 8 dereferenceable(32) %0)
  %14 = icmp sgt i32 %13, 0
  br i1 %14, label %.lr.ph, label %.loopexit

.lr.ph:                                           ; preds = %.lr.ph17, %.lr.ph
  %indvars.iv = phi i64 [ %indvars.iv.next, %.lr.ph ], [ 0, %.lr.ph17 ]
  %15 = getelementptr inbounds i32, ptr %7, i64 %indvars.iv
  %16 = getelementptr inbounds i32, ptr %11, i64 %indvars.iv
  %17 = load i32, ptr %15, align 4
  %18 = load i32, ptr %16, align 4
  store i32 %18, ptr %15, align 4
  store i32 %17, ptr %16, align 4
  %indvars.iv.next = add nuw nsw i64 %indvars.iv, 1
  %19 = tail call noundef i32 @_ZNK6QImage5widthEv(ptr noundef nonnull align 8 dereferenceable(32) %0)
  %20 = sext i32 %19 to i64
  %21 = icmp slt i64 %indvars.iv.next, %20
  br i1 %21, label %.lr.ph, label %.loopexit, !llvm.loop !21

._crit_edge:                                      ; preds = %.loopexit, %1
  ret void
}